target datalayout = "e-m:e-p270:32:32-p271:32:32-p272:64:64-i64:64-i128:128-f80:128-n8:16:32:64-S128"
target triple = "x86_64-pc-linux-gnu"

%struct.SBRDSPContext = type { ptr, ptr, ptr, ptr, ptr, ptr, ptr, ptr, ptr, ptr, [4 x ptr] }
%struct.AVFixedDSPContext = type { ptr, ptr, ptr, ptr, ptr, ptr, ptr }

; Function Attrs: nounwind uwtable
define internal void @sbr_qmf_synthesis(ptr noundef %0, ptr noundef %1, ptr noundef %2, ptr noundef %3, ptr noundef %4, ptr noundef %5, ptr noundef %6, ptr noundef %7, ptr noundef %8, i32 noundef %9) #3 {
  %11 = alloca ptr, align 8
  %12 = alloca ptr, align 8
  %13 = alloca ptr, align 8
  %14 = alloca ptr, align 8
  %15 = alloca ptr, align 8
  %16 = alloca ptr, align 8
  %17 = alloca ptr, align 8
  %18 = alloca ptr, align 8
  %19 = alloca ptr, align 8
  %20 = alloca i32, align 4
  %21 = alloca i32, align 4
  %22 = alloca i32, align 4
  %23 = alloca ptr, align 8
  %24 = alloca i32, align 4
  %25 = alloca ptr, align 8
  %26 = alloca i32, align 4
  store ptr %0, ptr %11, align 8, !tbaa !121
  store ptr %1, ptr %12, align 8, !tbaa !86
  store ptr %2, ptr %13, align 8, !tbaa !122
  store ptr %3, ptr %14, align 8, !tbaa !119
  store ptr %4, ptr %15, align 8, !tbaa !87
  store ptr %5, ptr %16, align 8, !tbaa !87
  store ptr %6, ptr %17, align 8, !tbaa !87
  store ptr %7, ptr %18, align 8, !tbaa !87
  store ptr %8, ptr %19, align 8, !tbaa !87
  store i32 %9, ptr %20, align 4, !tbaa !12
  call void @llvm.lifetime.start.p0(i64 4, ptr %21) #13
  call void @llvm.lifetime.start.p0(i64 4, ptr %22) #13
  call void @llvm.lifetime.start.p0(i64 8, ptr %23) #13
  %27 = load i32, ptr %20, align 4, !tbaa !12
  %28 = icmp ne i32 %27, 0
  %29 = select i1 %28, ptr @sbr_qmf_window_ds, ptr @sbr_qmf_window_us
  store ptr %29, ptr %23, align 8, !tbaa !87
  call void @llvm.lifetime.start.p0(i64 4, ptr %24) #13
  %30 = load i32, ptr %20, align 4, !tbaa !12
  %31 = ashr i32 128, %30
  store i32 %31, ptr %24, align 4, !tbaa !12
  call void @llvm.lifetime.start.p0(i64 8, ptr %25) #13
  store i32 0, ptr %21, align 4, !tbaa !12
  br label %32

32:                                               ; preds = %343, %10
  %33 = load i32, ptr %21, align 4, !tbaa !12
  %34 = icmp slt i32 %33, 32
  br i1 %34, label %35, label %346

35:                                               ; preds = %32
  %36 = load ptr, ptr %19, align 8, !tbaa !87
  %37 = load i32, ptr %36, align 4, !tbaa !12
  %38 = load i32, ptr %24, align 4, !tbaa !12
  %39 = icmp slt i32 %37, %38
  br i1 %39, label %40, label %57

40:                                               ; preds = %35
  call void @llvm.lifetime.start.p0(i64 4, ptr %26) #13
  %41 = load i32, ptr %20, align 4, !tbaa !12
  %42 = ashr i32 1152, %41
  store i32 %42, ptr %26, align 4, !tbaa !12
  %43 = load ptr, ptr %18, align 8, !tbaa !87
  %44 = load i32, ptr %26, align 4, !tbaa !12
  %45 = sub nsw i32 2304, %44
  %46 = sext i32 %45 to i64
  %47 = getelementptr inbounds i32, ptr %43, i64 %46
  %48 = load ptr, ptr %18, align 8, !tbaa !87
  %49 = load i32, ptr %26, align 4, !tbaa !12
  %50 = sext i32 %49 to i64
  %51 = mul i64 %50, 4
  call void @llvm.memcpy.p0.p0.i64(ptr align 4 %47, ptr align 4 %48, i64 %51, i1 false)
  %52 = load i32, ptr %26, align 4, !tbaa !12
  %53 = sub nsw i32 2304, %52
  %54 = load i32, ptr %24, align 4, !tbaa !12
  %55 = sub nsw i32 %53, %54
  %56 = load ptr, ptr %19, align 8, !tbaa !87
  store i32 %55, ptr %56, align 4, !tbaa !12
  call void @llvm.lifetime.end.p0(i64 4, ptr %26) #13
  br label %62

57:                                               ; preds = %35
  %58 = load i32, ptr %24, align 4, !tbaa !12
  %59 = load ptr, ptr %19, align 8, !tbaa !87
  %60 = load i32, ptr %59, align 4, !tbaa !12
  %61 = sub nsw i32 %60, %58
  store i32 %61, ptr %59, align 4, !tbaa !12
  br label %62

62:                                               ; preds = %57, %40
  %63 = load ptr, ptr %18, align 8, !tbaa !87
  %64 = load ptr, ptr %19, align 8, !tbaa !87
  %65 = load i32, ptr %64, align 4, !tbaa !12
  %66 = sext i32 %65 to i64
  %67 = getelementptr inbounds i32, ptr %63, i64 %66
  store ptr %67, ptr %25, align 8, !tbaa !87
  %68 = load i32, ptr %20, align 4, !tbaa !12
  %69 = icmp ne i32 %68, 0
  br i1 %69, label %70, label %134

70:                                               ; preds = %62
  store i32 0, ptr %22, align 4, !tbaa !12
  br label %71

71:                                               ; preds = %112, %70
  %72 = load i32, ptr %22, align 4, !tbaa !12
  %73 = icmp slt i32 %72, 32
  br i1 %73, label %74, label %115

74:                                               ; preds = %71
  %75 = load ptr, ptr %16, align 8, !tbaa !87
  %76 = getelementptr inbounds [38 x [64 x i32]], ptr %75, i64 0
  %77 = load i32, ptr %21, align 4, !tbaa !12
  %78 = sext i32 %77 to i64
  %79 = getelementptr inbounds [38 x [64 x i32]], ptr %76, i64 0, i64 %78
  %80 = load i32, ptr %22, align 4, !tbaa !12
  %81 = sext i32 %80 to i64
  %82 = getelementptr inbounds [64 x i32], ptr %79, i64 0, i64 %81
  %83 = load i32, ptr %82, align 4, !tbaa !12
  %84 = sub nsw i32 0, %83
  %85 = load ptr, ptr %16, align 8, !tbaa !87
  %86 = getelementptr inbounds [38 x [64 x i32]], ptr %85, i64 0
  %87 = load i32, ptr %21, align 4, !tbaa !12
  %88 = sext i32 %87 to i64
  %89 = getelementptr inbounds [38 x [64 x i32]], ptr %86, i64 0, i64 %88
  %90 = load i32, ptr %22, align 4, !tbaa !12
  %91 = sext i32 %90 to i64
  %92 = getelementptr inbounds [64 x i32], ptr %89, i64 0, i64 %91
  store i32 %84, ptr %92, align 4, !tbaa !12
  %93 = load ptr, ptr %16, align 8, !tbaa !87
  %94 = getelementptr inbounds [38 x [64 x i32]], ptr %93, i64 1
  %95 = load i32, ptr %21, align 4, !tbaa !12
  %96 = sext i32 %95 to i64
  %97 = getelementptr inbounds [38 x [64 x i32]], ptr %94, i64 0, i64 %96
  %98 = load i32, ptr %22, align 4, !tbaa !12
  %99 = sub nsw i32 31, %98
  %100 = sext i32 %99 to i64
  %101 = getelementptr inbounds [64 x i32], ptr %97, i64 0, i64 %100
  %102 = load i32, ptr %101, align 4, !tbaa !12
  %103 = load ptr, ptr %16, align 8, !tbaa !87
  %104 = getelementptr inbounds [38 x [64 x i32]], ptr %103, i64 0
  %105 = load i32, ptr %21, align 4, !tbaa !12
  %106 = sext i32 %105 to i64
  %107 = getelementptr inbounds [38 x [64 x i32]], ptr %104, i64 0, i64 %106
  %108 = load i32, ptr %22, align 4, !tbaa !12
  %109 = add nsw i32 32, %108
  %110 = sext i32 %109 to i64
  %111 = getelementptr inbounds [64 x i32], ptr %107, i64 0, i64 %110
  store i32 %102, ptr %111, align 4, !tbaa !12
  br label %112

112:                                              ; preds = %74
  %113 = load i32, ptr %22, align 4, !tbaa !12
  %114 = add nsw i32 %113, 1
  store i32 %114, ptr %22, align 4, !tbaa !12
  br label %71, !llvm.loop !170

115:                                              ; preds = %71
  %116 = load ptr, ptr %12, align 8, !tbaa !86
  %117 = load ptr, ptr %11, align 8, !tbaa !121
  %118 = load ptr, ptr %17, align 8, !tbaa !87
  %119 = getelementptr inbounds [64 x i32], ptr %118, i64 0
  %120 = getelementptr inbounds [64 x i32], ptr %119, i64 0, i64 0
  %121 = load ptr, ptr %16, align 8, !tbaa !87
  %122 = getelementptr inbounds [38 x [64 x i32]], ptr %121, i64 0
  %123 = load i32, ptr %21, align 4, !tbaa !12
  %124 = sext i32 %123 to i64
  %125 = getelementptr inbounds [38 x [64 x i32]], ptr %122, i64 0, i64 %124
  %126 = getelementptr inbounds [64 x i32], ptr %125, i64 0, i64 0
  call void %116(ptr noundef %117, ptr noundef %120, ptr noundef %126, i64 noundef 4)
  %127 = load ptr, ptr %13, align 8, !tbaa !122
  %128 = getelementptr inbounds nuw %struct.SBRDSPContext, ptr %127, i32 0, i32 5
  %129 = load ptr, ptr %128, align 8, !tbaa !171
  %130 = load ptr, ptr %25, align 8, !tbaa !87
  %131 = load ptr, ptr %17, align 8, !tbaa !87
  %132 = getelementptr inbounds [64 x i32], ptr %131, i64 0
  %133 = getelementptr inbounds [64 x i32], ptr %132, i64 0, i64 0
  call void %129(ptr noundef %130, ptr noundef %133)
  br label %176

134:                                              ; preds = %62
  %135 = load ptr, ptr %13, align 8, !tbaa !122
  %136 = getelementptr inbounds nuw %struct.SBRDSPContext, ptr %135, i32 0, i32 2
  %137 = load ptr, ptr %136, align 8, !tbaa !172
  %138 = load ptr, ptr %16, align 8, !tbaa !87
  %139 = getelementptr inbounds [38 x [64 x i32]], ptr %138, i64 1
  %140 = load i32, ptr %21, align 4, !tbaa !12
  %141 = sext i32 %140 to i64
  %142 = getelementptr inbounds [38 x [64 x i32]], ptr %139, i64 0, i64 %141
  %143 = getelementptr inbounds [64 x i32], ptr %142, i64 0, i64 0
  call void %137(ptr noundef %143)
  %144 = load ptr, ptr %12, align 8, !tbaa !86
  %145 = load ptr, ptr %11, align 8, !tbaa !121
  %146 = load ptr, ptr %17, align 8, !tbaa !87
  %147 = getelementptr inbounds [64 x i32], ptr %146, i64 0
  %148 = getelementptr inbounds [64 x i32], ptr %147, i64 0, i64 0
  %149 = load ptr, ptr %16, align 8, !tbaa !87
  %150 = getelementptr inbounds [38 x [64 x i32]], ptr %149, i64 0
  %151 = load i32, ptr %21, align 4, !tbaa !12
  %152 = sext i32 %151 to i64
  %153 = getelementptr inbounds [38 x [64 x i32]], ptr %150, i64 0, i64 %152
  %154 = getelementptr inbounds [64 x i32], ptr %153, i64 0, i64 0
  call void %144(ptr noundef %145, ptr noundef %148, ptr noundef %154, i64 noundef 4)
  %155 = load ptr, ptr %12, align 8, !tbaa !86
  %156 = load ptr, ptr %11, align 8, !tbaa !121
  %157 = load ptr, ptr %17, align 8, !tbaa !87
  %158 = getelementptr inbounds [64 x i32], ptr %157, i64 1
  %159 = getelementptr inbounds [64 x i32], ptr %158, i64 0, i64 0
  %160 = load ptr, ptr %16, align 8, !tbaa !87
  %161 = getelementptr inbounds [38 x [64 x i32]], ptr %160, i64 1
  %162 = load i32, ptr %21, align 4, !tbaa !12
  %163 = sext i32 %162 to i64
  %164 = getelementptr inbounds [38 x [64 x i32]], ptr %161, i64 0, i64 %163
  %165 = getelementptr inbounds [64 x i32], ptr %164, i64 0, i64 0
  call void %155(ptr noundef %156, ptr noundef %159, ptr noundef %165, i64 noundef 4)
  %166 = load ptr, ptr %13, align 8, !tbaa !122
  %167 = getelementptr inbounds nuw %struct.SBRDSPContext, ptr %166, i32 0, i32 6
  %168 = load ptr, ptr %167, align 8, !tbaa !173
  %169 = load ptr, ptr %25, align 8, !tbaa !87
  %170 = load ptr, ptr %17, align 8, !tbaa !87
  %171 = getelementptr inbounds [64 x i32], ptr %170, i64 1
  %172 = getelementptr inbounds [64 x i32], ptr %171, i64 0, i64 0
  %173 = load ptr, ptr %17, align 8, !tbaa !87
  %174 = getelementptr inbounds [64 x i32], ptr %173, i64 0
  %175 = getelementptr inbounds [64 x i32], ptr %174, i64 0, i64 0
  call void %168(ptr noundef %169, ptr noundef %172, ptr noundef %175)
  br label %176

176:                                              ; preds = %134, %115
  %177 = load ptr, ptr %14, align 8, !tbaa !119
  %178 = getelementptr inbounds nuw %struct.AVFixedDSPContext, ptr %177, i32 0, i32 2
  %179 = load ptr, ptr %178, align 8, !tbaa !174
  %180 = load ptr, ptr %15, align 8, !tbaa !87
  %181 = load ptr, ptr %25, align 8, !tbaa !87
  %182 = load ptr, ptr %23, align 8, !tbaa !87
  %183 = load i32, ptr %20, align 4, !tbaa !12
  %184 = ashr i32 64, %183
  call void %179(ptr noundef %180, ptr noundef %181, ptr noundef %182, i32 noundef %184)
  %185 = load ptr, ptr %14, align 8, !tbaa !119
  %186 = getelementptr inbounds nuw %struct.AVFixedDSPContext, ptr %185, i32 0, i32 4
  %187 = load ptr, ptr %186, align 8, !tbaa !175
  %188 = load ptr, ptr %15, align 8, !tbaa !87
  %189 = load ptr, ptr %25, align 8, !tbaa !87
  %190 = load i32, ptr %20, align 4, !tbaa !12
  %191 = ashr i32 192, %190
  %192 = sext i32 %191 to i64
  %193 = getelementptr inbounds i32, ptr %189, i64 %192
  %194 = load ptr, ptr %23, align 8, !tbaa !87
  %195 = load i32, ptr %20, align 4, !tbaa !12
  %196 = ashr i32 64, %195
  %197 = sext i32 %196 to i64
  %198 = getelementptr inbounds i32, ptr %194, i64 %197
  %199 = load ptr, ptr %15, align 8, !tbaa !87
  %200 = load i32, ptr %20, align 4, !tbaa !12
  %201 = ashr i32 64, %200
  call void %187(ptr noundef %188, ptr noundef %193, ptr noundef %198, ptr noundef %199, i32 noundef %201)
  %202 = load ptr, ptr %14, align 8, !tbaa !119
  %203 = getelementptr inbounds nuw %struct.AVFixedDSPContext, ptr %202, i32 0, i32 4
  %204 = load ptr, ptr %203, align 8, !tbaa !175
  %205 = load ptr, ptr %15, align 8, !tbaa !87
  %206 = load ptr, ptr %25, align 8, !tbaa !87
  %207 = load i32, ptr %20, align 4, !tbaa !12
  %208 = ashr i32 256, %207
  %209 = sext i32 %208 to i64
  %210 = getelementptr inbounds i32, ptr %206, i64 %209
  %211 = load ptr, ptr %23, align 8, !tbaa !87
  %212 = load i32, ptr %20, align 4, !tbaa !12
  %213 = ashr i32 128, %212
  %214 = sext i32 %213 to i64
  %215 = getelementptr inbounds i32, ptr %211, i64 %214
  %216 = load ptr, ptr %15, align 8, !tbaa !87
  %217 = load i32, ptr %20, align 4, !tbaa !12
  %218 = ashr i32 64, %217
  call void %204(ptr noundef %205, ptr noundef %210, ptr noundef %215, ptr noundef %216, i32 noundef %218)
  %219 = load ptr, ptr %14, align 8, !tbaa !119
  %220 = getelementptr inbounds nuw %struct.AVFixedDSPContext, ptr %219, i32 0, i32 4
  %221 = load ptr, ptr %220, align 8, !tbaa !175
  %222 = load ptr, ptr %15, align 8, !tbaa !87
  %223 = load ptr, ptr %25, align 8, !tbaa !87
  %224 = load i32, ptr %20, align 4, !tbaa !12
  %225 = ashr i32 448, %224
  %226 = sext i32 %225 to i64
  %227 = getelementptr inbounds i32, ptr %223, i64 %226
  %228 = load ptr, ptr %23, align 8, !tbaa !87
  %229 = load i32, ptr %20, align 4, !tbaa !12
  %230 = ashr i32 192, %229
  %231 = sext i32 %230 to i64
  %232 = getelementptr inbounds i32, ptr %228, i64 %231
  %233 = load ptr, ptr %15, align 8, !tbaa !87
  %234 = load i32, ptr %20, align 4, !tbaa !12
  %235 = ashr i32 64, %234
  call void %221(ptr noundef %222, ptr noundef %227, ptr noundef %232, ptr noundef %233, i32 noundef %235)
  %236 = load ptr, ptr %14, align 8, !tbaa !119
  %237 = getelementptr inbounds nuw %struct.AVFixedDSPContext, ptr %236, i32 0, i32 4
  %238 = load ptr, ptr %237, align 8, !tbaa !175
  %239 = load ptr, ptr %15, align 8, !tbaa !87
  %240 = load ptr, ptr %25, align 8, !tbaa !87
  %241 = load i32, ptr %20, align 4, !tbaa !12
  %242 = ashr i32 512, %241
  %243 = sext i32 %242 to i64
  %244 = getelementptr inbounds i32, ptr %240, i64 %243
  %245 = load ptr, ptr %23, align 8, !tbaa !87
  %246 = load i32, ptr %20, align 4, !tbaa !12
  %247 = ashr i32 256, %246
  %248 = sext i32 %247 to i64
  %249 = getelementptr inbounds i32, ptr %245, i64 %248
  %250 = load ptr, ptr %15, align 8, !tbaa !87
  %251 = load i32, ptr %20, align 4, !tbaa !12
  %252 = ashr i32 64, %251
  call void %238(ptr noundef %239, ptr noundef %244, ptr noundef %249, ptr noundef %250, i32 noundef %252)
  %253 = load ptr, ptr %14, align 8, !tbaa !119
  %254 = getelementptr inbounds nuw %struct.AVFixedDSPContext, ptr %253, i32 0, i32 4
  %255 = load ptr, ptr %254, align 8, !tbaa !175
  %256 = load ptr, ptr %15, align 8, !tbaa !87
  %257 = load ptr, ptr %25, align 8, !tbaa !87
  %258 = load i32, ptr %20, align 4, !tbaa !12
  %259 = ashr i32 704, %258
  %260 = sext i32 %259 to i64
  %261 = getelementptr inbounds i32, ptr %257, i64 %260
  %262 = load ptr, ptr %23, align 8, !tbaa !87
  %263 = load i32, ptr %20, align 4, !tbaa !12
  %264 = ashr i32 320, %263
  %265 = sext i32 %264 to i64
  %266 = getelementptr inbounds i32, ptr %262, i64 %265
  %267 = load ptr, ptr %15, align 8, !tbaa !87
  %268 = load i32, ptr %20, align 4, !tbaa !12
  %269 = ashr i32 64, %268
  call void %255(ptr noundef %256, ptr noundef %261, ptr noundef %266, ptr noundef %267, i32 noundef %269)
  %270 = load ptr, ptr %14, align 8, !tbaa !119
  %271 = getelementptr inbounds nuw %struct.AVFixedDSPContext, ptr %270, i32 0, i32 4
  %272 = load ptr, ptr %271, align 8, !tbaa !175
  %273 = load ptr, ptr %15, align 8, !tbaa !87
  %274 = load ptr, ptr %25, align 8, !tbaa !87
  %275 = load i32, ptr %20, align 4, !tbaa !12
  %276 = ashr i32 768, %275
  %277 = sext i32 %276 to i64
  %278 = getelementptr inbounds i32, ptr %274, i64 %277
  %279 = load ptr, ptr %23, align 8, !tbaa !87
  %280 = load i32, ptr %20, align 4, !tbaa !12
  %281 = ashr i32 384, %280
  %282 = sext i32 %281 to i64
  %283 = getelementptr inbounds i32, ptr %279, i64 %282
  %284 = load ptr, ptr %15, align 8, !tbaa !87
  %285 = load i32, ptr %20, align 4, !tbaa !12
  %286 = ashr i32 64, %285
  call void %272(ptr noundef %273, ptr noundef %278, ptr noundef %283, ptr noundef %284, i32 noundef %286)
  %287 = load ptr, ptr %14, align 8, !tbaa !119
  %288 = getelementptr inbounds nuw %struct.AVFixedDSPContext, ptr %287, i32 0, i32 4
  %289 = load ptr, ptr %288, align 8, !tbaa !175
  %290 = load ptr, ptr %15, align 8, !tbaa !87
  %291 = load ptr, ptr %25, align 8, !tbaa !87
  %292 = load i32, ptr %20, align 4, !tbaa !12
  %293 = ashr i32 960, %292
  %294 = sext i32 %293 to i64
  %295 = getelementptr inbounds i32, ptr %291, i64 %294
  %296 = load ptr, ptr %23, align 8, !tbaa !87
  %297 = load i32, ptr %20, align 4, !tbaa !12
  %298 = ashr i32 448, %297
  %299 = sext i32 %298 to i64
  %300 = getelementptr inbounds i32, ptr %296, i64 %299
  %301 = load ptr, ptr %15, align 8, !tbaa !87
  %302 = load i32, ptr %20, align 4, !tbaa !12
  %303 = ashr i32 64, %302
  call void %289(ptr noundef %290, ptr noundef %295, ptr noundef %300, ptr noundef %301, i32 noundef %303)
  %304 = load ptr, ptr %14, align 8, !tbaa !119
  %305 = getelementptr inbounds nuw %struct.AVFixedDSPContext, ptr %304, i32 0, i32 4
  %306 = load ptr, ptr %305, align 8, !tbaa !175
  %307 = load ptr, ptr %15, align 8, !tbaa !87
  %308 = load ptr, ptr %25, align 8, !tbaa !87
  %309 = load i32, ptr %20, align 4, !tbaa !12
  %310 = ashr i32 1024, %309
  %311 = sext i32 %310 to i64
  %312 = getelementptr inbounds i32, ptr %308, i64 %311
  %313 = load ptr, ptr %23, align 8, !tbaa !87
  %314 = load i32, ptr %20, align 4, !tbaa !12
  %315 = ashr i32 512, %314
  %316 = sext i32 %315 to i64
  %317 = getelementptr inbounds i32, ptr %313, i64 %316
  %318 = load ptr, ptr %15, align 8, !tbaa !87
  %319 = load i32, ptr %20, align 4, !tbaa !12
  %320 = ashr i32 64, %319
  call void %306(ptr noundef %307, ptr noundef %312, ptr noundef %317, ptr noundef %318, i32 noundef %320)
  %321 = load ptr, ptr %14, align 8, !tbaa !119
  %322 = getelementptr inbounds nuw %struct.AVFixedDSPContext, ptr %321, i32 0, i32 4
  %323 = load ptr, ptr %322, align 8, !tbaa !175
  %324 = load ptr, ptr %15, align 8, !tbaa !87
  %325 = load ptr, ptr %25, align 8, !tbaa !87
  %326 = load i32, ptr %20, align 4, !tbaa !12
  %327 = ashr i32 1216, %326
  %328 = sext i32 %327 to i64
  %329 = getelementptr inbounds i32, ptr %325, i64 %328
  %330 = load ptr, ptr %23, align 8, !tbaa !87
  %331 = load i32, ptr %20, align 4, !tbaa !12
  %332 = ashr i32 576, %331
  %333 = sext i32 %332 to i64
  %334 = getelementptr inbounds i32, ptr %330, i64 %333
  %335 = load ptr, ptr %15, align 8, !tbaa !87
  %336 = load i32, ptr %20, align 4, !tbaa !12
  %337 = ashr i32 64, %336
  call void %323(ptr noundef %324, ptr noundef %329, ptr noundef %334, ptr noundef %335, i32 noundef %337)
  %338 = load i32, ptr %20, align 4, !tbaa !12
  %339 = ashr i32 64, %338
  %340 = load ptr, ptr %15, align 8, !tbaa !87
  %341 = sext i32 %339 to i64
  %342 = getelementptr inbounds i32, ptr %340, i64 %341
  store ptr %342, ptr %15, align 8, !tbaa !87
  br label %343

343:                                              ; preds = %176
  %344 = load i32, ptr %21, align 4, !tbaa !12
  %345 = add nsw i32 %344, 1
  store i32 %345, ptr %21, align 4, !tbaa !12
  br label %32, !llvm.loop !176

346:                                              ; preds = %32
  call void @llvm.lifetime.end.p0(i64 8, ptr %25) #13
  call void @llvm.lifetime.end.p0(i64 4, ptr %24) #13
  call void @llvm.lifetime.end.p0(i64 8, ptr %23) #13
  call void @llvm.lifetime.end.p0(i64 4, ptr %22) #13
  call void @llvm.lifetime.end.p0(i64 4, ptr %21) #13
  ret void
}