; Function Attrs: nounwind uwtable
define internal fastcc void @sbr_qmf_synthesis(ptr noundef %0, ptr noundef readonly captures(none) %1, ptr noundef readonly captures(none) %2, ptr noundef readonly captures(none) %3, ptr noundef %4, ptr noundef %5, ptr noundef %6, ptr noundef %7, ptr noundef captures(none) %8, i32 noundef range(i32 0, 2) %9) unnamed_addr #3 {
  %.not = icmp eq i32 %9, 0
  %11 = select i1 %.not, ptr @sbr_qmf_window_us, ptr @sbr_qmf_window_ds
  %12 = lshr exact i32 128, %9
  %13 = lshr exact i32 1152, %9
  %14 = sub nuw nsw i32 2304, %13
  %15 = zext nneg i32 %14 to i64
  %16 = getelementptr inbounds nuw i32, ptr %7, i64 %15
  %17 = shl nuw nsw i32 %13, 2
  %18 = zext nneg i32 %17 to i64
  %19 = getelementptr inbounds nuw i8, ptr %5, i64 9728
  %20 = getelementptr inbounds nuw i8, ptr %2, i64 40
  %21 = getelementptr inbounds nuw i8, ptr %2, i64 16
  %22 = getelementptr inbounds nuw i8, ptr %6, i64 256
  %23 = getelementptr inbounds nuw i8, ptr %2, i64 48
  %24 = getelementptr inbounds nuw i8, ptr %3, i64 16
  %25 = lshr exact i32 64, %9
  %26 = getelementptr inbounds nuw i8, ptr %3, i64 32
  %27 = lshr exact i32 192, %9
  %28 = zext nneg i32 %27 to i64
  %29 = zext nneg i32 %25 to i64
  %30 = getelementptr inbounds nuw i32, ptr %11, i64 %29
  %31 = lshr exact i32 256, %9
  %32 = zext nneg i32 %31 to i64
  %33 = zext nneg i32 %12 to i64
  %34 = getelementptr inbounds nuw i32, ptr %11, i64 %33
  %35 = lshr exact i32 448, %9
  %36 = zext nneg i32 %35 to i64
  %37 = getelementptr inbounds nuw i32, ptr %11, i64 %28
  %38 = lshr exact i32 512, %9
  %39 = zext nneg i32 %38 to i64
  %40 = getelementptr inbounds nuw i32, ptr %11, i64 %32
  %41 = lshr exact i32 704, %9
  %42 = zext nneg i32 %41 to i64
  %43 = lshr exact i32 320, %9
  %44 = zext nneg i32 %43 to i64
  %45 = getelementptr inbounds nuw i32, ptr %11, i64 %44
  %46 = lshr exact i32 768, %9
  %47 = zext nneg i32 %46 to i64
  %48 = lshr exact i32 384, %9
  %49 = zext nneg i32 %48 to i64
  %50 = getelementptr inbounds nuw i32, ptr %11, i64 %49
  %51 = lshr exact i32 960, %9
  %52 = zext nneg i32 %51 to i64
  %53 = getelementptr inbounds nuw i32, ptr %11, i64 %36
  %54 = lshr exact i32 1024, %9
  %55 = zext nneg i32 %54 to i64
  %56 = getelementptr inbounds nuw i32, ptr %11, i64 %39
  %57 = lshr exact i32 1216, %9
  %58 = zext nneg i32 %57 to i64
  %59 = lshr exact i32 576, %9
  %60 = zext nneg i32 %59 to i64
  %61 = getelementptr inbounds nuw i32, ptr %11, i64 %60
  br label %62

62:                                               ; preds = %10, %85
  %indvars.iv144 = phi i64 [ 0, %10 ], [ %indvars.iv.next145, %85 ]
  %.0142 = phi ptr [ %4, %10 ], [ %105, %85 ]
  %63 = load i32, ptr %8, align 4, !tbaa !10
  %64 = icmp slt i32 %63, %12
  br i1 %64, label %65, label %66

65:                                               ; preds = %62
  tail call void @llvm.memcpy.p0.p0.i64(ptr noundef nonnull align 4 dereferenceable(1) %16, ptr noundef nonnull align 4 dereferenceable(1) %7, i64 %18, i1 false)
  br label %66

66:                                               ; preds = %62, %65
  %.pn = phi i32 [ %14, %65 ], [ %63, %62 ]
  %storemerge = sub nsw i32 %.pn, %12
  store i32 %storemerge, ptr %8, align 4, !tbaa !10
  %67 = sext i32 %storemerge to i64
  %68 = getelementptr inbounds i32, ptr %7, i64 %67
  br i1 %.not, label %80, label %.preheader

.preheader:                                       ; preds = %66, %.preheader
  %indvars.iv = phi i64 [ %indvars.iv.next, %.preheader ], [ 0, %66 ]
  %69 = getelementptr inbounds nuw [38 x [64 x i32]], ptr %5, i64 0, i64 %indvars.iv144, i64 %indvars.iv
  %70 = load i32, ptr %69, align 4, !tbaa !10
  %71 = sub nsw i32 0, %70
  store i32 %71, ptr %69, align 4, !tbaa !10
  %72 = sub nuw nsw i64 31, %indvars.iv
  %73 = getelementptr inbounds nuw [38 x [64 x i32]], ptr %19, i64 0, i64 %indvars.iv144, i64 %72
  %74 = load i32, ptr %73, align 4, !tbaa !10
  %75 = or disjoint i64 %indvars.iv, 32
  %76 = getelementptr inbounds nuw [38 x [64 x i32]], ptr %5, i64 0, i64 %indvars.iv144, i64 %75
  store i32 %74, ptr %76, align 4, !tbaa !10
  %indvars.iv.next = add nuw nsw i64 %indvars.iv, 1
  %exitcond.not = icmp eq i64 %indvars.iv.next, 32
  br i1 %exitcond.not, label %77, label %.preheader, !llvm.loop !203

77:                                               ; preds = %.preheader
  %78 = getelementptr inbounds nuw [38 x [64 x i32]], ptr %5, i64 0, i64 %indvars.iv144
  tail call void %1(ptr noundef %0, ptr noundef %6, ptr noundef %78, i64 noundef 4) #13
  %79 = load ptr, ptr %20, align 8, !tbaa !204
  tail call void %79(ptr noundef %68, ptr noundef %6) #13
  br label %85

80:                                               ; preds = %66
  %81 = load ptr, ptr %21, align 8, !tbaa !205
  %82 = getelementptr inbounds nuw [38 x [64 x i32]], ptr %19, i64 0, i64 %indvars.iv144
  tail call void %81(ptr noundef nonnull %82) #13
  %83 = getelementptr inbounds nuw [38 x [64 x i32]], ptr %5, i64 0, i64 %indvars.iv144
  tail call void %1(ptr noundef %0, ptr noundef %6, ptr noundef %83, i64 noundef 4) #13
  tail call void %1(ptr noundef %0, ptr noundef nonnull %22, ptr noundef nonnull %82, i64 noundef 4) #13
  %84 = load ptr, ptr %23, align 8, !tbaa !206
  tail call void %84(ptr noundef %68, ptr noundef nonnull %22, ptr noundef %6) #13
  br label %85

85:                                               ; preds = %80, %77
  %86 = load ptr, ptr %24, align 8, !tbaa !207
  tail call void %86(ptr noundef %.0142, ptr noundef %68, ptr noundef nonnull %11, i32 noundef %25) #13
  %87 = load ptr, ptr %26, align 8, !tbaa !208
  %88 = getelementptr inbounds nuw i32, ptr %68, i64 %28
  tail call void %87(ptr noundef %.0142, ptr noundef nonnull %88, ptr noundef nonnull %30, ptr noundef %.0142, i32 noundef %25) #13
  %89 = load ptr, ptr %26, align 8, !tbaa !208
  %90 = getelementptr inbounds nuw i32, ptr %68, i64 %32
  tail call void %89(ptr noundef %.0142, ptr noundef nonnull %90, ptr noundef nonnull %34, ptr noundef %.0142, i32 noundef %25) #13
  %91 = load ptr, ptr %26, align 8, !tbaa !208
  %92 = getelementptr inbounds nuw i32, ptr %68, i64 %36
  tail call void %91(ptr noundef %.0142, ptr noundef nonnull %92, ptr noundef nonnull %37, ptr noundef %.0142, i32 noundef %25) #13
  %93 = load ptr, ptr %26, align 8, !tbaa !208
  %94 = getelementptr inbounds nuw i32, ptr %68, i64 %39
  tail call void %93(ptr noundef %.0142, ptr noundef nonnull %94, ptr noundef nonnull %40, ptr noundef %.0142, i32 noundef %25) #13
  %95 = load ptr, ptr %26, align 8, !tbaa !208
  %96 = getelementptr inbounds nuw i32, ptr %68, i64 %42
  tail call void %95(ptr noundef %.0142, ptr noundef nonnull %96, ptr noundef nonnull %45, ptr noundef %.0142, i32 noundef %25) #13
  %97 = load ptr, ptr %26, align 8, !tbaa !208
  %98 = getelementptr inbounds nuw i32, ptr %68, i64 %47
  tail call void %97(ptr noundef %.0142, ptr noundef nonnull %98, ptr noundef nonnull %50, ptr noundef %.0142, i32 noundef %25) #13
  %99 = load ptr, ptr %26, align 8, !tbaa !208
  %100 = getelementptr inbounds nuw i32, ptr %68, i64 %52
  tail call void %99(ptr noundef %.0142, ptr noundef nonnull %100, ptr noundef nonnull %53, ptr noundef %.0142, i32 noundef %25) #13
  %101 = load ptr, ptr %26, align 8, !tbaa !208
  %102 = getelementptr inbounds nuw i32, ptr %68, i64 %55
  tail call void %101(ptr noundef %.0142, ptr noundef nonnull %102, ptr noundef nonnull %56, ptr noundef %.0142, i32 noundef %25) #13
  %103 = load ptr, ptr %26, align 8, !tbaa !208
  %104 = getelementptr inbounds nuw i32, ptr %68, i64 %58
  tail call void %103(ptr noundef %.0142, ptr noundef nonnull %104, ptr noundef nonnull %61, ptr noundef %.0142, i32 noundef %25) #13
  %105 = getelementptr inbounds nuw i32, ptr %.0142, i64 %29
  %indvars.iv.next145 = add nuw nsw i64 %indvars.iv144, 1
  %exitcond147.not = icmp eq i64 %indvars.iv.next145, 32
  br i1 %exitcond147.not, label %106, label %62, !llvm.loop !209

106:                                              ; preds = %85
  ret void
}